target datalayout = "e-m:e-p270:32:32-p271:32:32-p272:64:64-i64:64-i128:128-f80:128-n8:16:32:64-S128"
target triple = "x86_64-pc-linux-gnu"

%class.outputStream = type { ptr, i32, i8, i32, i64, %class.TimeStamp, ptr, i64 }
%class.TimeStamp = type { i64 }
%class.defaultStream = type { %class.xmlTextStream, i8, ptr, i64, i64 }
%class.xmlTextStream = type { %class.outputStream, ptr }

@_ZN13defaultStream8instanceE = hidden global ptr null, align 8
@tty_lock = external global ptr, align 8

; Function Attrs: mustprogress nounwind uwtable
define hidden void @_ZN13defaultStream7releaseEl(ptr noundef nonnull align 8 dereferenceable(96) %0, i64 noundef %1) #1 align 2 {
  %3 = alloca ptr, align 8
  %4 = alloca i64, align 8
  store ptr %0, ptr %3, align 8
  store i64 %1, ptr %4, align 8
  %5 = load ptr, ptr %3, align 8
  %6 = load i64, ptr %4, align 8
  %7 = icmp eq i64 %6, -1
  br i1 %7, label %8, label %9

8:                                                ; preds = %2
  br label %18

9:                                                ; preds = %2
  %10 = getelementptr inbounds %class.defaultStream, ptr %5, i32 0, i32 3
  %11 = load i64, ptr %10, align 8
  %12 = load i64, ptr %4, align 8
  %13 = icmp ne i64 %11, %12
  br i1 %13, label %14, label %15

14:                                               ; preds = %9
  br label %18

15:                                               ; preds = %9
  %16 = getelementptr inbounds %class.defaultStream, ptr %5, i32 0, i32 3
  store i64 -1, ptr %16, align 8
  %17 = load ptr, ptr @tty_lock, align 8
  call void @_ZN5Mutex6unlockEv(ptr noundef nonnull align 8 dereferenceable(104) %17)
  br label %18

18:                                               ; preds = %15, %14, %8
  ret void
}

; Function Attrs: mustprogress nounwind uwtable
define hidden void @_ZN9ttyLocker11release_ttyEl(i64 noundef %0) #1 align 2 {
  %2 = alloca i64, align 8
  store i64 %0, ptr %2, align 8
  %3 = load i64, ptr %2, align 8
  %4 = icmp eq i64 %3, -1
  br i1 %4, label %5, label %6

5:                                                ; preds = %1
  br label %9

6:                                                ; preds = %1
  %7 = load ptr, ptr @_ZN13defaultStream8instanceE, align 8
  %8 = load i64, ptr %2, align 8
  call void @_ZN13defaultStream7releaseEl(ptr noundef nonnull align 8 dereferenceable(96) %7, i64 noundef %8)
  br label %9

9:                                                ; preds = %6, %5
  ret void
}

; Function Attrs: mustprogress nounwind uwtable
define linkonce_odr hidden noundef i64 @_ZN13defaultStream6writerEv(ptr noundef nonnull align 8 dereferenceable(96) %0) #1 comdat align 2 {
  %2 = alloca ptr, align 8
  store ptr %0, ptr %2, align 8
  %3 = load ptr, ptr %2, align 8
  %4 = getelementptr inbounds %class.defaultStream, ptr %3, i32 0, i32 3
  %5 = load i64, ptr %4, align 8
  ret i64 %5
}

; Function Attrs: mustprogress nounwind uwtable
define hidden noundef zeroext i1 @_ZN9ttyLocker21release_tty_if_lockedEv() #1 align 2 {
  %1 = alloca i1, align 1
  %2 = alloca i64, align 8
  %3 = call noundef i64 @_ZN2os17current_thread_idEv()
  store i64 %3, ptr %2, align 8
  %4 = load ptr, ptr @_ZN13defaultStream8instanceE, align 8
  %5 = call noundef i64 @_ZN13defaultStream6writerEv(ptr noundef nonnull align 8 dereferenceable(96) %4)
  %6 = load i64, ptr %2, align 8
  %7 = icmp eq i64 %5, %6
  br i1 %7, label %8, label %10

8:                                                ; preds = %0
  %9 = load i64, ptr %2, align 8
  call void @_ZN9ttyLocker11release_ttyEl(i64 noundef %9)
  store i1 true, ptr %1, align 1
  br label %11

10:                                               ; preds = %0
  store i1 false, ptr %1, align 1
  br label %11

11:                                               ; preds = %10, %8
  %12 = load i1, ptr %1, align 1
  ret i1 %12
}