; Function Attrs: mustprogress nounwind uwtable
define hidden noundef zeroext i1 @_ZN9ttyLocker21release_tty_if_lockedEv() local_unnamed_addr #0 align 2 {
  %1 = tail call noundef i64 @_ZN2os17current_thread_idEv() #21
  %2 = load ptr, ptr @_ZN13defaultStream8instanceE, align 8
  %3 = getelementptr inbounds i8, ptr %2, i64 80
  %4 = load i64, ptr %3, align 8
  %5 = icmp eq i64 %4, %1
  %6 = icmp ne i64 %1, -1
  %or.cond.not = and i1 %6, %5
  br i1 %or.cond.not, label %7, label %_ZN9ttyLocker11release_ttyEl.exit

7:                                                ; preds = %0
  store i64 -1, ptr %3, align 8
  %8 = load ptr, ptr @tty_lock, align 8
  tail call void @_ZN5Mutex6unlockEv(ptr noundef nonnull align 8 dereferenceable(104) %8) #21
  br label %_ZN9ttyLocker11release_ttyEl.exit

_ZN9ttyLocker11release_ttyEl.exit:                ; preds = %7, %0
  ret i1 %5
}